; Function Attrs: nounwind uwtable
define internal void @recff_type(ptr noundef %0, ptr noundef readonly captures(none) %1) #0 {
  %3 = load ptr, ptr %1, align 8, !tbaa !36
  %4 = load i64, ptr %3, align 8, !tbaa !4
  %5 = ashr i64 %4, 47
  %6 = tail call i64 @llvm.umax.i64(i64 %5, i64 -14)
  %.0 = xor i64 %6, -1
  %7 = getelementptr inbounds nuw i8, ptr %0, i64 144
  %8 = load ptr, ptr %7, align 8, !tbaa !7
  %9 = getelementptr inbounds nuw i8, ptr %8, i64 48
  %10 = getelementptr inbounds nuw [1 x %union.TValue], ptr %9, i64 0, i64 %.0
  %11 = load i64, ptr %10, align 8, !tbaa !4
  %12 = and i64 %11, 140737488355327
  %13 = inttoptr i64 %12 to ptr
  %14 = tail call i32 @lj_ir_kgc(ptr noundef %0, ptr noundef %13, i32 noundef 4) #9
  %15 = getelementptr inbounds nuw i8, ptr %0, i64 160
  %16 = load ptr, ptr %15, align 8, !tbaa !37
  store i32 %14, ptr %16, align 4, !tbaa !39
  ret void
}